target datalayout = "e-m:e-p270:32:32-p271:32:32-p272:64:64-i64:64-i128:128-f80:128-n8:16:32:64-S128"
target triple = "x86_64-pc-linux-gnu"

%struct.Type_ = type { i32, ptr, ptr, ptr, %union.anon, ptr, ptr, %union.anon.1 }
%union.anon = type { ptr }
%union.anon.1 = type { %struct.TypeFunction }
%struct.TypeFunction = type { ptr, ptr, ptr }
%union.SourceSpan = type { i64 }
%struct.Decl_ = type { ptr, ptr, %union.SourceSpan, i64, %union.anon.3, i32, %union.anon.4, i64, ptr, ptr, ptr, %union.anon.5 }
%union.anon.3 = type { ptr }
%union.anon.4 = type { i16 }
%union.anon.5 = type { %struct.FuncDecl }
%struct.FuncDecl = type { i32, [4 x i8], %struct.Signature_, i32, i32, %union.anon.12 }
%struct.Signature_ = type <{ %struct.CalleeAttributes, i16, i8, i32, i32, [4 x i8], ptr }>
%struct.CalleeAttributes = type { i8 }
%union.anon.12 = type { %struct.anon.13 }
%struct.anon.13 = type { i16, %union.anon.14 }
%union.anon.14 = type { ptr }
%struct.anon.6 = type { ptr, ptr, %union.anon.7 }
%union.anon.7 = type { %struct.BitStructDecl }
%struct.BitStructDecl = type { ptr, ptr, i8 }
%struct.TypeInfo_ = type { i16, ptr, %union.SourceSpan, %union.anon.54 }
%union.anon.54 = type { %struct.anon.55 }
%struct.anon.55 = type { ptr, ptr }

@.str = private unnamed_addr constant [36 x i8] c"FATAL ERROR %s -> in %s @ in %s:%d \00", align 1
@.str.2 = private unnamed_addr constant [106 x i8] c"generated/home/dtcxzyw/WorkSpace/Projects/compilers/llvm-opt-benchmark/bench/c3c/c3c/src/compiler/types.c\00", align 1
@.str.17 = private unnamed_addr constant [22 x i8] c"Should be unreachable\00", align 1
@__func__.type_is_scalar = private unnamed_addr constant [15 x i8] c"type_is_scalar\00", align 1

; Function Attrs: nounwind uwtable
define dso_local zeroext i1 @type_is_scalar(ptr noundef %0) #0 {
  %2 = alloca i1, align 1
  %3 = alloca ptr, align 8
  store ptr %0, ptr %3, align 8
  br label %4

4:                                                ; preds = %40, %39, %23, %13, %1
  %5 = load ptr, ptr %3, align 8
  %6 = getelementptr inbounds %struct.Type_, ptr %5, i32 0, i32 0
  %7 = load i32, ptr %6, align 8
  switch i32 %7, label %44 [
    i32 42, label %8
    i32 36, label %8
    i32 38, label %8
    i32 39, label %8
    i32 0, label %8
    i32 43, label %8
    i32 41, label %8
    i32 28, label %8
    i32 18, label %8
    i32 1, label %11
    i32 25, label %11
    i32 26, label %11
    i32 27, label %11
    i32 33, label %11
    i32 34, label %11
    i32 37, label %11
    i32 19, label %11
    i32 20, label %11
    i32 35, label %11
    i32 2, label %12
    i32 3, label %12
    i32 4, label %12
    i32 5, label %12
    i32 6, label %12
    i32 7, label %12
    i32 8, label %12
    i32 9, label %12
    i32 10, label %12
    i32 11, label %12
    i32 12, label %12
    i32 14, label %12
    i32 13, label %12
    i32 15, label %12
    i32 16, label %12
    i32 17, label %12
    i32 22, label %12
    i32 23, label %12
    i32 24, label %12
    i32 30, label %12
    i32 21, label %12
    i32 29, label %13
    i32 32, label %23
    i32 40, label %32
    i32 31, label %40
  ]

8:                                                ; preds = %4, %4, %4, %4, %4, %4, %4, %4, %4
  br label %9

9:                                                ; preds = %8
  call void (ptr, ...) @error_exit(ptr noundef @.str, ptr noundef @.str.17, ptr noundef @__func__.type_is_scalar, ptr noundef @.str.2, i32 noundef 1616) #7
  unreachable

10:                                               ; No predecessors!
  br label %11

11:                                               ; preds = %10, %4, %4, %4, %4, %4, %4, %4, %4, %4, %4
  store i1 false, ptr %2, align 1
  br label %46

12:                                               ; preds = %4, %4, %4, %4, %4, %4, %4, %4, %4, %4, %4, %4, %4, %4, %4, %4, %4, %4, %4, %4, %4
  store i1 true, ptr %2, align 1
  br label %46

13:                                               ; preds = %4
  %14 = load ptr, ptr %3, align 8
  %15 = getelementptr inbounds %struct.Type_, ptr %14, i32 0, i32 7
  %16 = load ptr, ptr %15, align 8
  %17 = getelementptr inbounds %struct.Decl_, ptr %16, i32 0, i32 11
  %18 = getelementptr inbounds %struct.anon.6, ptr %17, i32 0, i32 2
  %19 = getelementptr inbounds %struct.BitStructDecl, ptr %18, i32 0, i32 0
  %20 = load ptr, ptr %19, align 8
  %21 = getelementptr inbounds %struct.TypeInfo_, ptr %20, i32 0, i32 1
  %22 = load ptr, ptr %21, align 8
  store ptr %22, ptr %3, align 8
  br label %4

23:                                               ; preds = %4
  %24 = load ptr, ptr %3, align 8
  %25 = getelementptr inbounds %struct.Type_, ptr %24, i32 0, i32 7
  %26 = load ptr, ptr %25, align 8
  %27 = getelementptr inbounds %struct.Decl_, ptr %26, i32 0, i32 11
  %28 = getelementptr inbounds %struct.anon.6, ptr %27, i32 0, i32 2
  %29 = load ptr, ptr %28, align 8
  %30 = getelementptr inbounds %struct.TypeInfo_, ptr %29, i32 0, i32 1
  %31 = load ptr, ptr %30, align 8
  store ptr %31, ptr %3, align 8
  br label %4

32:                                               ; preds = %4
  %33 = load ptr, ptr %3, align 8
  %34 = getelementptr inbounds %struct.Type_, ptr %33, i32 0, i32 7
  %35 = load ptr, ptr %34, align 8
  store ptr %35, ptr %3, align 8
  %36 = load ptr, ptr %3, align 8
  %37 = icmp ne ptr %36, null
  br i1 %37, label %39, label %38

38:                                               ; preds = %32
  store i1 false, ptr %2, align 1
  br label %46

39:                                               ; preds = %32
  br label %4

40:                                               ; preds = %4
  %41 = load ptr, ptr %3, align 8
  %42 = getelementptr inbounds %struct.Type_, ptr %41, i32 0, i32 1
  %43 = load ptr, ptr %42, align 8
  store ptr %43, ptr %3, align 8
  br label %4

44:                                               ; preds = %4
  br label %45

45:                                               ; preds = %44
  call void (ptr, ...) @error_exit(ptr noundef @.str, ptr noundef @.str.17, ptr noundef @__func__.type_is_scalar, ptr noundef @.str.2, i32 noundef 1651) #7
  unreachable

46:                                               ; preds = %38, %12, %11
  %47 = load i1, ptr %2, align 1
  ret i1 %47
}