; Function Attrs: nounwind uwtable
define dso_local noundef zeroext i1 @type_is_scalar(ptr nocapture noundef readonly %0) local_unnamed_addr #0 {
  br label %.backedge

.backedge:                                        ; preds = %.backedge.backedge, %1
  %.0 = phi ptr [ %0, %1 ], [ %.0.be, %.backedge.backedge ]
  %2 = load i32, ptr %.0, align 8
  switch i32 %2, label %13 [
    i32 42, label %3
    i32 36, label %3
    i32 38, label %3
    i32 39, label %3
    i32 0, label %3
    i32 43, label %3
    i32 41, label %3
    i32 28, label %3
    i32 18, label %3
    i32 1, label %.loopexit.loopexit
    i32 25, label %.loopexit.loopexit
    i32 26, label %.loopexit.loopexit
    i32 27, label %.loopexit.loopexit
    i32 33, label %.loopexit.loopexit
    i32 34, label %.loopexit.loopexit
    i32 37, label %.loopexit.loopexit
    i32 19, label %.loopexit.loopexit
    i32 20, label %.loopexit.loopexit
    i32 35, label %.loopexit.loopexit
    i32 2, label %.loopexit
    i32 3, label %.loopexit
    i32 4, label %.loopexit
    i32 5, label %.loopexit
    i32 6, label %.loopexit
    i32 7, label %.loopexit
    i32 8, label %.loopexit
    i32 9, label %.loopexit
    i32 10, label %.loopexit
    i32 11, label %.loopexit
    i32 12, label %.loopexit
    i32 14, label %.loopexit
    i32 13, label %.loopexit
    i32 15, label %.loopexit
    i32 16, label %.loopexit
    i32 17, label %.loopexit
    i32 22, label %.loopexit
    i32 23, label %.loopexit
    i32 24, label %.loopexit
    i32 30, label %.loopexit
    i32 21, label %.loopexit
    i32 29, label %.backedge.sink.split.sink.split
    i32 32, label %.backedge.sink.split.sink.split
    i32 40, label %10
    i32 31, label %.backedge.sink.split
  ]

3:                                                ; preds = %.backedge, %.backedge, %.backedge, %.backedge, %.backedge, %.backedge, %.backedge, %.backedge, %.backedge
  tail call void (ptr, ...) @error_exit(ptr noundef nonnull @.str, ptr noundef nonnull @.str.17, ptr noundef nonnull @__func__.type_is_scalar, ptr noundef nonnull @.str.2, i32 noundef 1616) #13
  unreachable

.backedge.sink.split.sink.split:                  ; preds = %.backedge, %.backedge
  %4 = getelementptr inbounds i8, ptr %.0, i64 56
  %5 = load ptr, ptr %4, align 8
  %6 = getelementptr inbounds i8, ptr %5, i64 96
  %7 = load ptr, ptr %6, align 8
  br label %.backedge.sink.split

.backedge.sink.split:                             ; preds = %.backedge.sink.split.sink.split, %.backedge
  %.sink10 = phi ptr [ %.0, %.backedge ], [ %7, %.backedge.sink.split.sink.split ]
  %8 = getelementptr inbounds i8, ptr %.sink10, i64 8
  %9 = load ptr, ptr %8, align 8
  br label %.backedge.backedge

.backedge.backedge:                               ; preds = %.backedge.sink.split, %10
  %.0.be = phi ptr [ %12, %10 ], [ %9, %.backedge.sink.split ]
  br label %.backedge

10:                                               ; preds = %.backedge
  %11 = getelementptr inbounds i8, ptr %.0, i64 56
  %12 = load ptr, ptr %11, align 8
  %.not = icmp eq ptr %12, null
  br i1 %.not, label %.loopexit.loopexit, label %.backedge.backedge

13:                                               ; preds = %.backedge
  tail call void (ptr, ...) @error_exit(ptr noundef nonnull @.str, ptr noundef nonnull @.str.17, ptr noundef nonnull @__func__.type_is_scalar, ptr noundef nonnull @.str.2, i32 noundef 1651) #13
  unreachable

.loopexit.loopexit:                               ; preds = %.backedge, %.backedge, %.backedge, %.backedge, %.backedge, %.backedge, %.backedge, %.backedge, %.backedge, %.backedge, %10
  br label %.loopexit

.loopexit:                                        ; preds = %.backedge, %.backedge, %.backedge, %.backedge, %.backedge, %.backedge, %.backedge, %.backedge, %.backedge, %.backedge, %.backedge, %.backedge, %.backedge, %.backedge, %.backedge, %.backedge, %.backedge, %.backedge, %.backedge, %.backedge, %.backedge, %.loopexit.loopexit
  %.07 = phi i1 [ false, %.loopexit.loopexit ], [ true, %.backedge ], [ true, %.backedge ], [ true, %.backedge ], [ true, %.backedge ], [ true, %.backedge ], [ true, %.backedge ], [ true, %.backedge ], [ true, %.backedge ], [ true, %.backedge ], [ true, %.backedge ], [ true, %.backedge ], [ true, %.backedge ], [ true, %.backedge ], [ true, %.backedge ], [ true, %.backedge ], [ true, %.backedge ], [ true, %.backedge ], [ true, %.backedge ], [ true, %.backedge ], [ true, %.backedge ], [ true, %.backedge ]
  ret i1 %.07
}